target datalayout = "e-m:e-p270:32:32-p271:32:32-p272:64:64-i64:64-i128:128-f80:128-n8:16:32:64-S128"
target triple = "x86_64-pc-linux-gnu"

%struct._header_field_info = type { ptr, ptr, i32, i32, ptr, i64, ptr, i32, i32, i32, i32, ptr }
%struct._protocol = type { ptr, ptr, ptr, ptr, i32, i8, i8, i8, i32, ptr }

@protocols = internal global ptr null, align 8
@.str.101 = private unnamed_addr constant [51 x i8] c"Pino \22%s\22 must be of type FT_PROTOCOL or FT_BYTES.\00", align 1
@.str.102 = private unnamed_addr constant [132 x i8] c"Must have a valid parent protocol for helper protocol \22%s\22! This might be caused by an inappropriate plugin or a development error.\00", align 1

; Function Attrs: null_pointer_is_valid sspstrong uwtable
define i32 @proto_register_protocol_in_name_only(ptr noundef %0, ptr noundef %1, ptr noundef %2, i32 noundef %3, i32 noundef %4) #0 {
  %6 = alloca ptr, align 8
  %7 = alloca ptr, align 8
  %8 = alloca ptr, align 8
  %9 = alloca i32, align 4
  %10 = alloca i32, align 4
  %11 = alloca ptr, align 8
  %12 = alloca ptr, align 8
  %13 = alloca i64, align 8
  %14 = alloca i64, align 8
  %15 = alloca ptr, align 8
  %16 = alloca ptr, align 8
  store ptr %0, ptr %6, align 8
  store ptr %1, ptr %7, align 8
  store ptr %2, ptr %8, align 8
  store i32 %3, ptr %9, align 4
  store i32 %4, ptr %10, align 4
  call void @llvm.lifetime.start.p0(i64 8, ptr %11) #24
  call void @llvm.lifetime.start.p0(i64 8, ptr %12) #24
  %17 = load i32, ptr %10, align 4
  %18 = icmp ne i32 %17, 1
  br i1 %18, label %19, label %24

19:                                               ; preds = %5
  %20 = load i32, ptr %10, align 4
  %21 = icmp ne i32 %20, 30
  br i1 %21, label %22, label %24

22:                                               ; preds = %19
  %23 = load ptr, ptr %6, align 8
  call void (ptr, ...) @proto_report_dissector_bug(ptr noundef @.str.101, ptr noundef %23) #27
  unreachable

24:                                               ; preds = %19, %5
  %25 = load i32, ptr %9, align 4
  %26 = icmp sle i32 %25, 0
  br i1 %26, label %27, label %29

27:                                               ; preds = %24
  %28 = load ptr, ptr %6, align 8
  call void (ptr, ...) @proto_report_dissector_bug(ptr noundef @.str.102, ptr noundef %28) #27
  unreachable

29:                                               ; preds = %24
  %30 = load ptr, ptr %8, align 8
  call void @check_protocol_filter_name_or_fail(ptr noundef %30)
  call void @llvm.lifetime.start.p0(i64 8, ptr %13) #24
  store i64 1, ptr %13, align 8
  call void @llvm.lifetime.start.p0(i64 8, ptr %14) #24
  store i64 56, ptr %14, align 8
  call void @llvm.lifetime.start.p0(i64 8, ptr %15) #24
  %31 = load i64, ptr %14, align 8
  %32 = icmp eq i64 %31, 1
  br i1 %32, label %33, label %36

33:                                               ; preds = %29
  %34 = load i64, ptr %13, align 8
  %35 = call noalias ptr @g_malloc(i64 noundef %34) #25
  store ptr %35, ptr %15, align 8
  br label %57

36:                                               ; preds = %29
  %37 = load i64, ptr %13, align 8
  %38 = call i1 @llvm.is.constant.i64(i64 %37)
  br i1 %38, label %39, label %52

39:                                               ; preds = %36
  %40 = load i64, ptr %14, align 8
  %41 = icmp eq i64 %40, 0
  br i1 %41, label %47, label %42

42:                                               ; preds = %39
  %43 = load i64, ptr %13, align 8
  %44 = load i64, ptr %14, align 8
  %45 = udiv i64 -1, %44
  %46 = icmp ule i64 %43, %45
  br i1 %46, label %47, label %52

47:                                               ; preds = %42, %39
  %48 = load i64, ptr %13, align 8
  %49 = load i64, ptr %14, align 8
  %50 = mul i64 %48, %49
  %51 = call noalias ptr @g_malloc(i64 noundef %50) #25
  store ptr %51, ptr %15, align 8
  br label %56

52:                                               ; preds = %42, %36
  %53 = load i64, ptr %13, align 8
  %54 = load i64, ptr %14, align 8
  %55 = call noalias ptr @g_malloc_n(i64 noundef %53, i64 noundef %54) #26
  store ptr %55, ptr %15, align 8
  br label %56

56:                                               ; preds = %52, %47
  br label %57

57:                                               ; preds = %56, %33
  %58 = load ptr, ptr %15, align 8
  store ptr %58, ptr %16, align 8
  call void @llvm.lifetime.end.p0(i64 8, ptr %15) #24
  call void @llvm.lifetime.end.p0(i64 8, ptr %14) #24
  call void @llvm.lifetime.end.p0(i64 8, ptr %13) #24
  %59 = load ptr, ptr %16, align 8
  store ptr %59, ptr %11, align 8
  %60 = load ptr, ptr %6, align 8
  %61 = load ptr, ptr %11, align 8
  %62 = getelementptr inbounds nuw %struct._protocol, ptr %61, i32 0, i32 0
  store ptr %60, ptr %62, align 8
  %63 = load ptr, ptr %7, align 8
  %64 = load ptr, ptr %11, align 8
  %65 = getelementptr inbounds nuw %struct._protocol, ptr %64, i32 0, i32 1
  store ptr %63, ptr %65, align 8
  %66 = load ptr, ptr %8, align 8
  %67 = load ptr, ptr %11, align 8
  %68 = getelementptr inbounds nuw %struct._protocol, ptr %67, i32 0, i32 2
  store ptr %66, ptr %68, align 8
  %69 = load ptr, ptr %11, align 8
  %70 = getelementptr inbounds nuw %struct._protocol, ptr %69, i32 0, i32 3
  store ptr null, ptr %70, align 8
  %71 = load ptr, ptr %11, align 8
  %72 = getelementptr inbounds nuw %struct._protocol, ptr %71, i32 0, i32 5
  store i8 1, ptr %72, align 4
  %73 = load ptr, ptr %11, align 8
  %74 = getelementptr inbounds nuw %struct._protocol, ptr %73, i32 0, i32 6
  store i8 1, ptr %74, align 1
  %75 = load ptr, ptr %11, align 8
  %76 = getelementptr inbounds nuw %struct._protocol, ptr %75, i32 0, i32 7
  store i8 1, ptr %76, align 2
  %77 = load i32, ptr %9, align 4
  %78 = load ptr, ptr %11, align 8
  %79 = getelementptr inbounds nuw %struct._protocol, ptr %78, i32 0, i32 8
  store i32 %77, ptr %79, align 8
  %80 = load ptr, ptr %11, align 8
  %81 = getelementptr inbounds nuw %struct._protocol, ptr %80, i32 0, i32 9
  store ptr null, ptr %81, align 8
  %82 = load ptr, ptr @protocols, align 8
  %83 = load ptr, ptr %11, align 8
  %84 = call ptr @g_list_prepend(ptr noundef %82, ptr noundef %83)
  store ptr %84, ptr @protocols, align 8
  %85 = call noalias ptr @g_slice_alloc(i64 noundef 72) #25
  store ptr %85, ptr %12, align 8
  %86 = load ptr, ptr %6, align 8
  %87 = load ptr, ptr %12, align 8
  %88 = getelementptr inbounds nuw %struct._header_field_info, ptr %87, i32 0, i32 0
  store ptr %86, ptr %88, align 8
  %89 = load ptr, ptr %8, align 8
  %90 = load ptr, ptr %12, align 8
  %91 = getelementptr inbounds nuw %struct._header_field_info, ptr %90, i32 0, i32 1
  store ptr %89, ptr %91, align 8
  %92 = load i32, ptr %10, align 4
  %93 = load ptr, ptr %12, align 8
  %94 = getelementptr inbounds nuw %struct._header_field_info, ptr %93, i32 0, i32 2
  store i32 %92, ptr %94, align 8
  %95 = load ptr, ptr %12, align 8
  %96 = getelementptr inbounds nuw %struct._header_field_info, ptr %95, i32 0, i32 3
  store i32 0, ptr %96, align 4
  %97 = load i32, ptr %10, align 4
  %98 = icmp eq i32 %97, 30
  br i1 %98, label %99, label %104

99:                                               ; preds = %57
  %100 = load ptr, ptr %12, align 8
  %101 = getelementptr inbounds nuw %struct._header_field_info, ptr %100, i32 0, i32 3
  %102 = load i32, ptr %101, align 4
  %103 = or i32 %102, 24576
  store i32 %103, ptr %101, align 4
  br label %104

104:                                              ; preds = %99, %57
  %105 = load ptr, ptr %11, align 8
  %106 = load ptr, ptr %12, align 8
  %107 = getelementptr inbounds nuw %struct._header_field_info, ptr %106, i32 0, i32 4
  store ptr %105, ptr %107, align 8
  %108 = load ptr, ptr %12, align 8
  %109 = getelementptr inbounds nuw %struct._header_field_info, ptr %108, i32 0, i32 5
  store i64 0, ptr %109, align 8
  %110 = load ptr, ptr %12, align 8
  %111 = getelementptr inbounds nuw %struct._header_field_info, ptr %110, i32 0, i32 9
  store i32 0, ptr %111, align 8
  %112 = load ptr, ptr %12, align 8
  %113 = getelementptr inbounds nuw %struct._header_field_info, ptr %112, i32 0, i32 6
  store ptr null, ptr %113, align 8
  %114 = load ptr, ptr %12, align 8
  %115 = getelementptr inbounds nuw %struct._header_field_info, ptr %114, i32 0, i32 8
  store i32 -1, ptr %115, align 4
  %116 = load ptr, ptr %12, align 8
  %117 = load ptr, ptr %12, align 8
  %118 = getelementptr inbounds nuw %struct._header_field_info, ptr %117, i32 0, i32 8
  %119 = load i32, ptr %118, align 4
  %120 = call i32 @proto_register_field_init(ptr noundef %116, i32 noundef %119)
  %121 = load ptr, ptr %11, align 8
  %122 = getelementptr inbounds nuw %struct._protocol, ptr %121, i32 0, i32 4
  store i32 %120, ptr %122, align 8
  %123 = load ptr, ptr %11, align 8
  %124 = getelementptr inbounds nuw %struct._protocol, ptr %123, i32 0, i32 4
  %125 = load i32, ptr %124, align 8
  call void @llvm.lifetime.end.p0(i64 8, ptr %12) #24
  call void @llvm.lifetime.end.p0(i64 8, ptr %11) #24
  ret i32 %125
}