; Function Attrs: null_pointer_is_valid sspstrong uwtable
define i32 @proto_register_protocol_in_name_only(ptr noundef %0, ptr noundef %1, ptr noundef %2, i32 noundef %3, i32 noundef %4) local_unnamed_addr #0 {
  switch i32 %4, label %6 [
    i32 30, label %7
    i32 1, label %7
  ]

6:                                                ; preds = %5
  tail call void (ptr, ...) @proto_report_dissector_bug(ptr noundef nonnull @.str.101, ptr noundef %0) #37
  unreachable

7:                                                ; preds = %5, %5
  %8 = icmp slt i32 %3, 1
  br i1 %8, label %9, label %10

9:                                                ; preds = %7
  tail call void (ptr, ...) @proto_report_dissector_bug(ptr noundef nonnull @.str.102, ptr noundef %0) #37
  unreachable

10:                                               ; preds = %7
  tail call fastcc void @check_protocol_filter_name_or_fail(ptr noundef %2)
  %11 = tail call noalias dereferenceable_or_null(56) ptr @g_malloc(i64 noundef 56) #38
  store ptr %0, ptr %11, align 8
  %12 = getelementptr inbounds nuw i8, ptr %11, i64 8
  store ptr %1, ptr %12, align 8
  %13 = getelementptr inbounds nuw i8, ptr %11, i64 16
  store ptr %2, ptr %13, align 8
  %14 = getelementptr inbounds nuw i8, ptr %11, i64 24
  store ptr null, ptr %14, align 8
  %15 = getelementptr inbounds nuw i8, ptr %11, i64 36
  store i8 1, ptr %15, align 4
  %16 = getelementptr inbounds nuw i8, ptr %11, i64 37
  store i8 1, ptr %16, align 1
  %17 = getelementptr inbounds nuw i8, ptr %11, i64 38
  store i8 1, ptr %17, align 2
  %18 = getelementptr inbounds nuw i8, ptr %11, i64 40
  store i32 %3, ptr %18, align 8
  %19 = getelementptr inbounds nuw i8, ptr %11, i64 48
  store ptr null, ptr %19, align 8
  %20 = load ptr, ptr @protocols, align 8
  %21 = tail call ptr @g_list_prepend(ptr noundef %20, ptr noundef %11)
  store ptr %21, ptr @protocols, align 8
  %22 = tail call noalias dereferenceable_or_null(72) ptr @g_slice_alloc(i64 noundef 72) #38
  store ptr %0, ptr %22, align 8
  %23 = getelementptr inbounds nuw i8, ptr %22, i64 8
  store ptr %2, ptr %23, align 8
  %24 = getelementptr inbounds nuw i8, ptr %22, i64 16
  store i32 %4, ptr %24, align 8
  %25 = icmp eq i32 %4, 30
  %storemerge = select i1 %25, i32 24576, i32 0
  %26 = getelementptr inbounds nuw i8, ptr %22, i64 20
  store i32 %storemerge, ptr %26, align 4
  %27 = getelementptr inbounds nuw i8, ptr %22, i64 24
  store ptr %11, ptr %27, align 8
  %28 = getelementptr inbounds nuw i8, ptr %22, i64 32
  %29 = getelementptr inbounds nuw i8, ptr %22, i64 56
  store i32 0, ptr %29, align 8
  %30 = getelementptr inbounds nuw i8, ptr %22, i64 52
  tail call void @llvm.memset.p0.i64(ptr noundef nonnull align 8 dereferenceable(16) %28, i8 0, i64 16, i1 false)
  store i32 -1, ptr %30, align 4
  %31 = tail call fastcc i32 @proto_register_field_init(ptr noundef %22, i32 noundef -1)
  %32 = getelementptr inbounds nuw i8, ptr %11, i64 32
  store i32 %31, ptr %32, align 8
  ret i32 %31
}